target datalayout = "e-m:e-p270:32:32-p271:32:32-p272:64:64-i64:64-i128:128-f80:128-n8:16:32:64-S128"
target triple = "x86_64-pc-linux-gnu"

%"struct.vcpkg::StringView" = type { ptr, i64 }
%"struct.vcpkg::msg::MessageT.190" = type { i64 }
%"struct.vcpkg::msg::expected_t" = type { i8 }
%"struct.vcpkg::msg::actual_t" = type { i8 }
%"class.std::__cxx11::basic_string" = type { %"struct.std::__cxx11::basic_string<char>::_Alloc_hider", i64, %union.anon }
%"struct.std::__cxx11::basic_string<char>::_Alloc_hider" = type { ptr }
%union.anon = type { i64, [8 x i8] }
%"struct.vcpkg::LineInfo" = type { i32, ptr }
%"struct.vcpkg::LocalizedString" = type { %"class.std::__cxx11::basic_string" }
%struct.tm = type { i32, i32, i32, i32, i32, i32, i32, i32, i32, i64, ptr }
%"struct.vcpkg::msg::TagArg.191" = type { %"struct.vcpkg::StringView" }
%"struct.vcpkg::msg::TagArg.192" = type { ptr }
%"class.std::allocator.0" = type { i8 }

@.str.7 = private unnamed_addr constant [124 x i8] c"generated/home/dtcxzyw/WorkSpace/Projects/compilers/llvm-opt-benchmark/bench/vcpkg/vcpkg-tool/src/vcpkg/commands.export.cpp\00", align 1
@.str.98 = private unnamed_addr constant [14 x i8] c"%Y%m%d-%H%M%S\00", align 1
@_ZN5vcpkg21msgUnexpectedByteSizeE = external global %"struct.vcpkg::msg::MessageT.190", align 8
@.str.99 = private unnamed_addr constant [3 x i8] c"15\00", align 1
@_ZN5vcpkg3msgL8expectedE = internal constant %"struct.vcpkg::msg::expected_t" undef, align 1
@_ZN5vcpkg3msgL6actualE = internal constant %"struct.vcpkg::msg::actual_t" undef, align 1
@.str.100 = private unnamed_addr constant [14 x i8] c"vcpkg-export-\00", align 1
@.str.101 = private unnamed_addr constant [50 x i8] c"basic_string: construction from null is not valid\00", align 1

; Function Attrs: mustprogress nounwind uwtable
define linkonce_odr dso_local noundef i64 @_ZNSt11char_traitsIcE6lengthEPKc(ptr noundef %0) #2 comdat align 2 {
  %2 = alloca ptr, align 8
  store ptr %0, ptr %2, align 8
  %3 = load ptr, ptr %2, align 8
  %4 = call i64 @strlen(ptr noundef %3) #16
  ret i64 %4
}

; Function Attrs: mustprogress nounwind uwtable
define linkonce_odr dso_local void @_ZNSt7__cxx1112basic_stringIcSt11char_traitsIcESaIcEE12_Alloc_hiderD2Ev(ptr noundef nonnull align 8 dereferenceable(8) %0) unnamed_addr #2 comdat align 2 {
  %2 = alloca ptr, align 8
  store ptr %0, ptr %2, align 8
  %3 = load ptr, ptr %2, align 8
  call void @_ZNSaIcED2Ev(ptr noundef nonnull align 1 dereferenceable(1) %3) #16
  ret void
}

; Function Attrs: mustprogress nounwind uwtable
define linkonce_odr dso_local void @_ZN5vcpkg15LocalizedStringD2Ev(ptr noundef nonnull align 8 dereferenceable(32) %0) unnamed_addr #2 comdat align 2 {
  %2 = alloca ptr, align 8
  store ptr %0, ptr %2, align 8
  %3 = load ptr, ptr %2, align 8
  %4 = getelementptr inbounds %"struct.vcpkg::LocalizedString", ptr %3, i32 0, i32 0
  call void @_ZNSt7__cxx1112basic_stringIcSt11char_traitsIcESaIcEED1Ev(ptr noundef nonnull align 8 dereferenceable(32) %4) #16
  ret void
}

; Function Attrs: mustprogress nounwind uwtable
define linkonce_odr dso_local void @_ZN5vcpkg10StringViewC2EPKc(ptr noundef nonnull align 8 dereferenceable(16) %0, ptr noundef %1) unnamed_addr #2 comdat align 2 {
  %3 = alloca ptr, align 8
  %4 = alloca ptr, align 8
  store ptr %0, ptr %3, align 8
  store ptr %1, ptr %4, align 8
  %5 = load ptr, ptr %3, align 8
  %6 = getelementptr inbounds %"struct.vcpkg::StringView", ptr %5, i32 0, i32 0
  %7 = load ptr, ptr %4, align 8
  store ptr %7, ptr %6, align 8
  %8 = getelementptr inbounds %"struct.vcpkg::StringView", ptr %5, i32 0, i32 1
  %9 = load ptr, ptr %4, align 8
  %10 = call i64 @strlen(ptr noundef %9) #17
  store i64 %10, ptr %8, align 8
  ret void
}

; Function Attrs: mustprogress uwtable
define linkonce_odr dso_local void @_ZNSt7__cxx1112basic_stringIcSt11char_traitsIcESaIcEEC2IS3_EEPKcRKS3_(ptr noundef nonnull align 8 dereferenceable(32) %0, ptr noundef %1, ptr noundef nonnull align 1 dereferenceable(1) %2) unnamed_addr #0 comdat align 2 personality ptr @__gxx_personality_v0 {
  %4 = alloca ptr, align 8
  %5 = alloca ptr, align 8
  %6 = alloca ptr, align 8
  %7 = alloca ptr, align 8
  %8 = alloca i32, align 4
  %9 = alloca ptr, align 8
  store ptr %0, ptr %4, align 8
  store ptr %1, ptr %5, align 8
  store ptr %2, ptr %6, align 8
  %10 = load ptr, ptr %4, align 8
  %11 = getelementptr inbounds %"class.std::__cxx11::basic_string", ptr %10, i32 0, i32 0
  %12 = call noundef ptr @_ZNSt7__cxx1112basic_stringIcSt11char_traitsIcESaIcEE13_M_local_dataEv(ptr noundef nonnull align 8 dereferenceable(32) %10)
  %13 = load ptr, ptr %6, align 8
  call void @_ZNSt7__cxx1112basic_stringIcSt11char_traitsIcESaIcEE12_Alloc_hiderC1EPcRKS3_(ptr noundef nonnull align 8 dereferenceable(8) %11, ptr noundef %12, ptr noundef nonnull align 1 dereferenceable(1) %13)
  %14 = load ptr, ptr %5, align 8
  %15 = icmp eq ptr %14, null
  br i1 %15, label %16, label %22

16:                                               ; preds = %3
  invoke void @_ZSt19__throw_logic_errorPKc(ptr noundef @.str.101) #19
          to label %17 unwind label %18

17:                                               ; preds = %16
  unreachable

18:                                               ; preds = %22, %16
  %19 = landingpad { ptr, i32 }
          cleanup
  %20 = extractvalue { ptr, i32 } %19, 0
  store ptr %20, ptr %7, align 8
  %21 = extractvalue { ptr, i32 } %19, 1
  store i32 %21, ptr %8, align 4
  call void @_ZNSt7__cxx1112basic_stringIcSt11char_traitsIcESaIcEE12_Alloc_hiderD2Ev(ptr noundef nonnull align 8 dereferenceable(8) %11) #16
  br label %30

22:                                               ; preds = %3
  %23 = load ptr, ptr %5, align 8
  %24 = load ptr, ptr %5, align 8
  %25 = call noundef i64 @_ZNSt11char_traitsIcE6lengthEPKc(ptr noundef %24)
  %26 = getelementptr inbounds i8, ptr %23, i64 %25
  store ptr %26, ptr %9, align 8
  %27 = load ptr, ptr %5, align 8
  %28 = load ptr, ptr %9, align 8
  invoke void @_ZNSt7__cxx1112basic_stringIcSt11char_traitsIcESaIcEE12_M_constructIPKcEEvT_S8_St20forward_iterator_tag(ptr noundef nonnull align 8 dereferenceable(32) %10, ptr noundef %27, ptr noundef %28)
          to label %29 unwind label %18

29:                                               ; preds = %22
  ret void

30:                                               ; preds = %18
  %31 = load ptr, ptr %7, align 8
  %32 = load i32, ptr %8, align 4
  %33 = insertvalue { ptr, i32 } poison, ptr %31, 0
  %34 = insertvalue { ptr, i32 } %33, i32 %32, 1
  resume { ptr, i32 } %34
}

; Function Attrs: mustprogress uwtable
define linkonce_odr dso_local void @_ZN5vcpkg6Checks14msg_check_exitIJNS_3msg10expected_tENS2_8actual_tEEJNS_10StringViewEmEEEvRKNS_8LineInfoEbNS2_8MessageTIJDpT_EEEDpNS2_6TagArgINS_8identityISA_E4typeET0_EE(ptr noundef nonnull align 8 dereferenceable(16) %0, i1 noundef zeroext %1, i64 %2, ptr %3, i64 %4, ptr %5) #0 comdat personality ptr @__gxx_personality_v0 {
  %7 = alloca %"struct.vcpkg::msg::MessageT.190", align 8
  %8 = alloca %"struct.vcpkg::msg::TagArg.191", align 8
  %9 = alloca %"struct.vcpkg::msg::TagArg.192", align 8
  %10 = alloca ptr, align 8
  %11 = alloca i8, align 1
  %12 = alloca %"struct.vcpkg::LocalizedString", align 8
  %13 = alloca %"struct.vcpkg::msg::MessageT.190", align 8
  %14 = alloca %"struct.vcpkg::msg::TagArg.191", align 8
  %15 = alloca %"struct.vcpkg::msg::TagArg.192", align 8
  %16 = alloca ptr, align 8
  %17 = alloca i32, align 4
  %18 = getelementptr inbounds %"struct.vcpkg::msg::MessageT.190", ptr %7, i32 0, i32 0
  store i64 %2, ptr %18, align 8
  %19 = getelementptr inbounds { ptr, i64 }, ptr %8, i32 0, i32 0
  store ptr %3, ptr %19, align 8
  %20 = getelementptr inbounds { ptr, i64 }, ptr %8, i32 0, i32 1
  store i64 %4, ptr %20, align 8
  %21 = getelementptr inbounds %"struct.vcpkg::msg::TagArg.192", ptr %9, i32 0, i32 0
  store ptr %5, ptr %21, align 8
  store ptr %0, ptr %10, align 8
  %22 = zext i1 %1 to i8
  store i8 %22, ptr %11, align 1
  %23 = load i8, ptr %11, align 1
  %24 = trunc i8 %23 to i1
  br i1 %24, label %40, label %25

25:                                               ; preds = %6
  %26 = load ptr, ptr %10, align 8
  call void @llvm.memcpy.p0.p0.i64(ptr align 8 %13, ptr align 8 %7, i64 8, i1 false)
  call void @llvm.memcpy.p0.p0.i64(ptr align 8 %14, ptr align 8 %8, i64 16, i1 false)
  call void @llvm.memcpy.p0.p0.i64(ptr align 8 %15, ptr align 8 %9, i64 8, i1 false)
  %27 = getelementptr inbounds %"struct.vcpkg::msg::MessageT.190", ptr %13, i32 0, i32 0
  %28 = load i64, ptr %27, align 8
  %29 = getelementptr inbounds { ptr, i64 }, ptr %14, i32 0, i32 0
  %30 = load ptr, ptr %29, align 8
  %31 = getelementptr inbounds { ptr, i64 }, ptr %14, i32 0, i32 1
  %32 = load i64, ptr %31, align 8
  %33 = getelementptr inbounds %"struct.vcpkg::msg::TagArg.192", ptr %15, i32 0, i32 0
  %34 = load ptr, ptr %33, align 8
  call void @_ZN5vcpkg3msg6formatIJNS0_10expected_tENS0_8actual_tEEJNS_10StringViewEmEEENS_15LocalizedStringENS0_8MessageTIJDpT_EEEDpNS0_6TagArgINS_8identityIS7_E4typeET0_EE(ptr dead_on_unwind writable sret(%"struct.vcpkg::LocalizedString") align 8 %12, i64 %28, ptr %30, i64 %32, ptr %34)
  invoke void @_ZN5vcpkg6Checks21msg_exit_with_messageERKNS_8LineInfoERKNS_15LocalizedStringE(ptr noundef nonnull align 8 dereferenceable(16) %26, ptr noundef nonnull align 8 dereferenceable(32) %12) #19
          to label %35 unwind label %36

35:                                               ; preds = %25
  unreachable

36:                                               ; preds = %25
  %37 = landingpad { ptr, i32 }
          cleanup
  %38 = extractvalue { ptr, i32 } %37, 0
  store ptr %38, ptr %16, align 8
  %39 = extractvalue { ptr, i32 } %37, 1
  store i32 %39, ptr %17, align 4
  call void @_ZN5vcpkg15LocalizedStringD2Ev(ptr noundef nonnull align 8 dereferenceable(32) %12) #16
  br label %41

40:                                               ; preds = %6
  ret void

41:                                               ; preds = %36
  %42 = load ptr, ptr %16, align 8
  %43 = load i32, ptr %17, align 4
  %44 = insertvalue { ptr, i32 } poison, ptr %42, 0
  %45 = insertvalue { ptr, i32 } %44, i32 %43, 1
  resume { ptr, i32 } %45
}

; Function Attrs: mustprogress nounwind uwtable
define linkonce_odr dso_local ptr @_ZNK5vcpkg3msg8actual_taSImEENS0_6TagArgIS1_NSt11conditionalIXsr3std16is_constructibleINS_10StringViewET_EE5valueES5_S6_E4typeEEERKS6_(ptr noundef nonnull align 1 dereferenceable(1) %0, ptr noundef nonnull align 8 dereferenceable(8) %1) #2 comdat align 2 {
  %3 = alloca %"struct.vcpkg::msg::TagArg.192", align 8
  %4 = alloca ptr, align 8
  %5 = alloca ptr, align 8
  store ptr %0, ptr %4, align 8
  store ptr %1, ptr %5, align 8
  %6 = getelementptr inbounds %"struct.vcpkg::msg::TagArg.192", ptr %3, i32 0, i32 0
  %7 = load ptr, ptr %5, align 8
  store ptr %7, ptr %6, align 8
  %8 = getelementptr inbounds %"struct.vcpkg::msg::TagArg.192", ptr %3, i32 0, i32 0
  %9 = load ptr, ptr %8, align 8
  ret ptr %9
}

; Function Attrs: mustprogress nounwind uwtable
define linkonce_odr dso_local { ptr, i64 } @_ZNK5vcpkg3msg10expected_taSIA3_cEENS0_6TagArgIS1_NSt11conditionalIXsr3std16is_constructibleINS_10StringViewET_EE5valueES6_S7_E4typeEEERKS7_(ptr noundef nonnull align 1 dereferenceable(1) %0, ptr noundef nonnull align 1 dereferenceable(3) %1) #2 comdat align 2 {
  %3 = alloca %"struct.vcpkg::msg::TagArg.191", align 8
  %4 = alloca ptr, align 8
  %5 = alloca ptr, align 8
  store ptr %0, ptr %4, align 8
  store ptr %1, ptr %5, align 8
  %6 = getelementptr inbounds %"struct.vcpkg::msg::TagArg.191", ptr %3, i32 0, i32 0
  %7 = load ptr, ptr %5, align 8
  %8 = getelementptr inbounds [3 x i8], ptr %7, i64 0, i64 0
  call void @_ZN5vcpkg10StringViewC2EPKc(ptr noundef nonnull align 8 dereferenceable(16) %6, ptr noundef %8) #16
  %9 = getelementptr inbounds %"struct.vcpkg::msg::TagArg.191", ptr %3, i32 0, i32 0
  %10 = load { ptr, i64 }, ptr %9, align 8
  ret { ptr, i64 } %10
}

; Function Attrs: mustprogress uwtable
define internal void @_ZN12_GLOBAL__N_116create_export_idB5cxx11Ev(ptr dead_on_unwind noalias writable sret(%"class.std::__cxx11::basic_string") align 8 %0) #0 personality ptr @__gxx_personality_v0 {
  %2 = alloca ptr, align 8
  %3 = alloca %struct.tm, align 8
  %4 = alloca [16 x i8], align 16
  %5 = alloca i64, align 8
  %6 = alloca %"struct.vcpkg::LineInfo", align 8
  %7 = alloca %"struct.vcpkg::msg::MessageT.190", align 8
  %8 = alloca %"struct.vcpkg::msg::TagArg.191", align 8
  %9 = alloca %"struct.vcpkg::msg::TagArg.192", align 8
  %10 = alloca %"class.std::__cxx11::basic_string", align 8
  %11 = alloca %"class.std::allocator.0", align 1
  %12 = alloca ptr, align 8
  %13 = alloca i32, align 4
  store ptr %0, ptr %2, align 8
  call void @_ZN5vcpkg27get_current_date_time_localEv(ptr dead_on_unwind writable sret(%struct.tm) align 8 %3)
  %14 = getelementptr inbounds [16 x i8], ptr %4, i64 0, i64 0
  %15 = call i64 @strftime(ptr noundef %14, i64 noundef 16, ptr noundef @.str.98, ptr noundef %3) #16
  store i64 %15, ptr %5, align 8
  %16 = getelementptr inbounds %"struct.vcpkg::LineInfo", ptr %6, i32 0, i32 0
  store i32 133, ptr %16, align 8
  %17 = getelementptr inbounds %"struct.vcpkg::LineInfo", ptr %6, i32 0, i32 1
  store ptr @.str.7, ptr %17, align 8
  %18 = load i64, ptr %5, align 8
  %19 = icmp eq i64 %18, 15
  call void @llvm.memcpy.p0.p0.i64(ptr align 8 %7, ptr align 8 @_ZN5vcpkg21msgUnexpectedByteSizeE, i64 8, i1 false)
  %20 = call { ptr, i64 } @_ZNK5vcpkg3msg10expected_taSIA3_cEENS0_6TagArgIS1_NSt11conditionalIXsr3std16is_constructibleINS_10StringViewET_EE5valueES6_S7_E4typeEEERKS7_(ptr noundef nonnull align 1 dereferenceable(1) @_ZN5vcpkg3msgL8expectedE, ptr noundef nonnull align 1 dereferenceable(3) @.str.99) #16
  %21 = getelementptr inbounds %"struct.vcpkg::msg::TagArg.191", ptr %8, i32 0, i32 0
  %22 = getelementptr inbounds { ptr, i64 }, ptr %21, i32 0, i32 0
  %23 = extractvalue { ptr, i64 } %20, 0
  store ptr %23, ptr %22, align 8
  %24 = getelementptr inbounds { ptr, i64 }, ptr %21, i32 0, i32 1
  %25 = extractvalue { ptr, i64 } %20, 1
  store i64 %25, ptr %24, align 8
  %26 = call ptr @_ZNK5vcpkg3msg8actual_taSImEENS0_6TagArgIS1_NSt11conditionalIXsr3std16is_constructibleINS_10StringViewET_EE5valueES5_S6_E4typeEEERKS6_(ptr noundef nonnull align 1 dereferenceable(1) @_ZN5vcpkg3msgL6actualE, ptr noundef nonnull align 8 dereferenceable(8) %5) #16
  %27 = getelementptr inbounds %"struct.vcpkg::msg::TagArg.192", ptr %9, i32 0, i32 0
  store ptr %26, ptr %27, align 8
  %28 = getelementptr inbounds %"struct.vcpkg::msg::MessageT.190", ptr %7, i32 0, i32 0
  %29 = load i64, ptr %28, align 8
  %30 = getelementptr inbounds { ptr, i64 }, ptr %8, i32 0, i32 0
  %31 = load ptr, ptr %30, align 8
  %32 = getelementptr inbounds { ptr, i64 }, ptr %8, i32 0, i32 1
  %33 = load i64, ptr %32, align 8
  %34 = getelementptr inbounds %"struct.vcpkg::msg::TagArg.192", ptr %9, i32 0, i32 0
  %35 = load ptr, ptr %34, align 8
  call void @_ZN5vcpkg6Checks14msg_check_exitIJNS_3msg10expected_tENS2_8actual_tEEJNS_10StringViewEmEEEvRKNS_8LineInfoEbNS2_8MessageTIJDpT_EEEDpNS2_6TagArgINS_8identityISA_E4typeET0_EE(ptr noundef nonnull align 8 dereferenceable(16) %6, i1 noundef zeroext %19, i64 %29, ptr %31, i64 %33, ptr %35)
  %36 = getelementptr inbounds [16 x i8], ptr %4, i64 0, i64 0
  call void @_ZNSaIcEC1Ev(ptr noundef nonnull align 1 dereferenceable(1) %11) #16
  invoke void @_ZNSt7__cxx1112basic_stringIcSt11char_traitsIcESaIcEEC2IS3_EEPKcRKS3_(ptr noundef nonnull align 8 dereferenceable(32) %10, ptr noundef %36, ptr noundef nonnull align 1 dereferenceable(1) %11)
          to label %37 unwind label %39

37:                                               ; preds = %1
  call void @_ZNSaIcED1Ev(ptr noundef nonnull align 1 dereferenceable(1) %11) #16
  invoke void @_ZStplIcSt11char_traitsIcESaIcEENSt7__cxx1112basic_stringIT_T0_T1_EEPKS5_RKS8_(ptr dead_on_unwind writable sret(%"class.std::__cxx11::basic_string") align 8 %0, ptr noundef @.str.100, ptr noundef nonnull align 8 dereferenceable(32) %10)
          to label %38 unwind label %43

38:                                               ; preds = %37
  call void @_ZNSt7__cxx1112basic_stringIcSt11char_traitsIcESaIcEED1Ev(ptr noundef nonnull align 8 dereferenceable(32) %10) #16
  ret void

39:                                               ; preds = %1
  %40 = landingpad { ptr, i32 }
          cleanup
  %41 = extractvalue { ptr, i32 } %40, 0
  store ptr %41, ptr %12, align 8
  %42 = extractvalue { ptr, i32 } %40, 1
  store i32 %42, ptr %13, align 4
  call void @_ZNSaIcED1Ev(ptr noundef nonnull align 1 dereferenceable(1) %11) #16
  br label %47

43:                                               ; preds = %37
  %44 = landingpad { ptr, i32 }
          cleanup
  %45 = extractvalue { ptr, i32 } %44, 0
  store ptr %45, ptr %12, align 8
  %46 = extractvalue { ptr, i32 } %44, 1
  store i32 %46, ptr %13, align 4
  call void @_ZNSt7__cxx1112basic_stringIcSt11char_traitsIcESaIcEED1Ev(ptr noundef nonnull align 8 dereferenceable(32) %10) #16
  br label %47

47:                                               ; preds = %43, %39
  %48 = load ptr, ptr %12, align 8
  %49 = load i32, ptr %13, align 4
  %50 = insertvalue { ptr, i32 } poison, ptr %48, 0
  %51 = insertvalue { ptr, i32 } %50, i32 %49, 1
  resume { ptr, i32 } %51
}