; Function Attrs: mustprogress uwtable
define internal fastcc void @_ZN12_GLOBAL__N_116create_export_idB5cxx11Ev(ptr dead_on_unwind noalias writable align 8 %0) unnamed_addr #0 personality ptr @__gxx_personality_v0 {
  %2 = alloca %"struct.vcpkg::LocalizedString", align 8
  %3 = alloca %struct.tm, align 8
  %4 = alloca [16 x i8], align 16
  %5 = alloca i64, align 8
  %6 = alloca %"struct.vcpkg::LineInfo", align 8
  %7 = alloca %"class.std::__cxx11::basic_string", align 8
  %8 = alloca %"class.std::allocator.0", align 1
  call void @_ZN5vcpkg27get_current_date_time_localEv(ptr dead_on_unwind nonnull writable sret(%struct.tm) align 8 %3)
  %9 = call i64 @strftime(ptr noundef nonnull %4, i64 noundef 16, ptr noundef nonnull @.str.98, ptr noundef nonnull %3) #21
  store i64 %9, ptr %5, align 8
  store i32 133, ptr %6, align 8
  %10 = getelementptr inbounds i8, ptr %6, i64 8
  store ptr @.str.7, ptr %10, align 8
  %11 = icmp eq i64 %9, 15
  %.sroa.02.0.copyload = load i64, ptr @_ZN5vcpkg21msgUnexpectedByteSizeE, align 8
  call void @llvm.lifetime.start.p0(i64 32, ptr nonnull %2)
  br i1 %11, label %_ZN5vcpkg6Checks14msg_check_exitIJNS_3msg10expected_tENS2_8actual_tEEJNS_10StringViewEmEEEvRKNS_8LineInfoEbNS2_8MessageTIJDpT_EEEDpNS2_6TagArgINS_8identityISA_E4typeET0_EE.exit, label %12

12:                                               ; preds = %1
  call void @_ZN5vcpkg3msg6formatIJNS0_10expected_tENS0_8actual_tEEJNS_10StringViewEmEEENS_15LocalizedStringENS0_8MessageTIJDpT_EEEDpNS0_6TagArgINS_8identityIS7_E4typeET0_EE(ptr dead_on_unwind nonnull writable sret(%"struct.vcpkg::LocalizedString") align 8 %2, i64 %.sroa.02.0.copyload, ptr nonnull @.str.99, i64 2, ptr nonnull %5)
  invoke void @_ZN5vcpkg6Checks21msg_exit_with_messageERKNS_8LineInfoERKNS_15LocalizedStringE(ptr noundef nonnull align 8 dereferenceable(16) %6, ptr noundef nonnull align 8 dereferenceable(32) %2) #22
          to label %13 unwind label %14

13:                                               ; preds = %12
  unreachable

common.resume:                                    ; preds = %.body, %24, %14
  %common.resume.op = phi { ptr, i32 } [ %15, %14 ], [ %25, %24 ], [ %eh.lpad-body, %.body ]
  resume { ptr, i32 } %common.resume.op

14:                                               ; preds = %12
  %15 = landingpad { ptr, i32 }
          cleanup
  call void @_ZNSt7__cxx1112basic_stringIcSt11char_traitsIcESaIcEED1Ev(ptr noundef nonnull align 8 dereferenceable(32) %2) #21
  br label %common.resume

_ZN5vcpkg6Checks14msg_check_exitIJNS_3msg10expected_tENS2_8actual_tEEJNS_10StringViewEmEEEvRKNS_8LineInfoEbNS2_8MessageTIJDpT_EEEDpNS2_6TagArgINS_8identityISA_E4typeET0_EE.exit: ; preds = %1
  call void @llvm.lifetime.end.p0(i64 32, ptr nonnull %2)
  call void @_ZNSaIcEC1Ev(ptr noundef nonnull align 1 dereferenceable(1) %8) #21
  %16 = invoke noundef ptr @_ZNSt7__cxx1112basic_stringIcSt11char_traitsIcESaIcEE13_M_local_dataEv(ptr noundef nonnull align 8 dereferenceable(32) %7)
          to label %.noexc unwind label %22

.noexc:                                           ; preds = %_ZN5vcpkg6Checks14msg_check_exitIJNS_3msg10expected_tENS2_8actual_tEEJNS_10StringViewEmEEEvRKNS_8LineInfoEbNS2_8MessageTIJDpT_EEEDpNS2_6TagArgINS_8identityISA_E4typeET0_EE.exit
  invoke void @_ZNSt7__cxx1112basic_stringIcSt11char_traitsIcESaIcEE12_Alloc_hiderC1EPcRKS3_(ptr noundef nonnull align 8 dereferenceable(8) %7, ptr noundef %16, ptr noundef nonnull align 1 dereferenceable(1) %8)
          to label %.noexc5 unwind label %22

.noexc5:                                          ; preds = %.noexc
  %17 = call noundef i64 @strlen(ptr noundef nonnull dereferenceable(1) %4) #21
  %18 = getelementptr inbounds i8, ptr %4, i64 %17
  invoke void @_ZNSt7__cxx1112basic_stringIcSt11char_traitsIcESaIcEE12_M_constructIPKcEEvT_S8_St20forward_iterator_tag(ptr noundef nonnull align 8 dereferenceable(32) %7, ptr noundef nonnull %4, ptr noundef nonnull %18)
          to label %_ZNSt7__cxx1112basic_stringIcSt11char_traitsIcESaIcEEC2IS3_EEPKcRKS3_.exit unwind label %19

19:                                               ; preds = %.noexc5
  %20 = landingpad { ptr, i32 }
          cleanup
  call void @_ZNSaIcED2Ev(ptr noundef nonnull align 1 dereferenceable(1) %7) #21
  br label %.body

_ZNSt7__cxx1112basic_stringIcSt11char_traitsIcESaIcEEC2IS3_EEPKcRKS3_.exit: ; preds = %.noexc5
  call void @_ZNSaIcED1Ev(ptr noundef nonnull align 1 dereferenceable(1) %8) #21
  invoke void @_ZStplIcSt11char_traitsIcESaIcEENSt7__cxx1112basic_stringIT_T0_T1_EEPKS5_RKS8_(ptr dead_on_unwind writable sret(%"class.std::__cxx11::basic_string") align 8 %0, ptr noundef nonnull @.str.100, ptr noundef nonnull align 8 dereferenceable(32) %7)
          to label %21 unwind label %24

21:                                               ; preds = %_ZNSt7__cxx1112basic_stringIcSt11char_traitsIcESaIcEEC2IS3_EEPKcRKS3_.exit
  call void @_ZNSt7__cxx1112basic_stringIcSt11char_traitsIcESaIcEED1Ev(ptr noundef nonnull align 8 dereferenceable(32) %7) #21
  ret void

22:                                               ; preds = %.noexc, %_ZN5vcpkg6Checks14msg_check_exitIJNS_3msg10expected_tENS2_8actual_tEEJNS_10StringViewEmEEEvRKNS_8LineInfoEbNS2_8MessageTIJDpT_EEEDpNS2_6TagArgINS_8identityISA_E4typeET0_EE.exit
  %23 = landingpad { ptr, i32 }
          cleanup
  br label %.body

.body:                                            ; preds = %19, %22
  %eh.lpad-body = phi { ptr, i32 } [ %23, %22 ], [ %20, %19 ]
  call void @_ZNSaIcED1Ev(ptr noundef nonnull align 1 dereferenceable(1) %8) #21
  br label %common.resume

24:                                               ; preds = %_ZNSt7__cxx1112basic_stringIcSt11char_traitsIcESaIcEEC2IS3_EEPKcRKS3_.exit
  %25 = landingpad { ptr, i32 }
          cleanup
  call void @_ZNSt7__cxx1112basic_stringIcSt11char_traitsIcESaIcEED1Ev(ptr noundef nonnull align 8 dereferenceable(32) %7) #21
  br label %common.resume
}